libKF5SyntaxHighlighting.so.5:_Z20_txnal_cow_string_D1Pv
libKF5SyntaxHighlighting.so.5:_Z23_txnal_cow_string_c_strPKv
libKF5SyntaxHighlighting.so.5:_Z23_txnal_sso_string_c_strPKv
libKF5SyntaxHighlighting.so.5:_Z26_txnal_logic_error_get_msgPv
libKF5SyntaxHighlighting.so.5:_Z27_txnal_cow_string_D1_commitPv
libKF5SyntaxHighlighting.so.5:_Z28_txnal_runtime_error_get_msgPv
libKF5SyntaxHighlighting.so.5:_Z35_txnal_cow_string_C1_for_exceptionsPvPKcS_
libKF5SyntaxHighlighting.so.5:_ZGTtNKSt11logic_error4whatEv
libKF5SyntaxHighlighting.so.5:_ZGTtNKSt13bad_exception4whatEv
libKF5SyntaxHighlighting.so.5:_ZGTtNKSt13bad_exceptionD1Ev
libKF5SyntaxHighlighting.so.5:_ZGTtNKSt13runtime_error4whatEv
libKF5SyntaxHighlighting.so.5:_ZGTtNKSt9exception4whatEv
libKF5SyntaxHighlighting.so.5:_ZGTtNKSt9exceptionD1Ev
libKF5SyntaxHighlighting.so.5:_ZGTtNSt11logic_errorC1EPKc
libKF5SyntaxHighlighting.so.5:_ZGTtNSt11logic_errorC1ERKNSt7__cxx1112basic_stringIcSt11char_traitsIcESaIcEEE
libKF5SyntaxHighlighting.so.5:_ZGTtNSt11logic_errorC2EPKc
libKF5SyntaxHighlighting.so.5:_ZGTtNSt11logic_errorC2ERKNSt7__cxx1112basic_stringIcSt11char_traitsIcESaIcEEE
libKF5SyntaxHighlighting.so.5:_ZGTtNSt11logic_errorD0Ev
libKF5SyntaxHighlighting.so.5:_ZGTtNSt11logic_errorD1Ev
libKF5SyntaxHighlighting.so.5:_ZGTtNSt11logic_errorD2Ev
libKF5SyntaxHighlighting.so.5:_ZGTtNSt11range_errorC1EPKc
libKF5SyntaxHighlighting.so.5:_ZGTtNSt11range_errorC1ERKNSt7__cxx1112basic_stringIcSt11char_traitsIcESaIcEEE
libKF5SyntaxHighlighting.so.5:_ZGTtNSt11range_errorC2EPKc
libKF5SyntaxHighlighting.so.5:_ZGTtNSt11range_errorC2ERKNSt7__cxx1112basic_stringIcSt11char_traitsIcESaIcEEE
libKF5SyntaxHighlighting.so.5:_ZGTtNSt11range_errorD0Ev
libKF5SyntaxHighlighting.so.5:_ZGTtNSt11range_errorD1Ev
libKF5SyntaxHighlighting.so.5:_ZGTtNSt11range_errorD2Ev
libKF5SyntaxHighlighting.so.5:_ZGTtNSt12domain_errorC1EPKc
libKF5SyntaxHighlighting.so.5:_ZGTtNSt12domain_errorC1ERKNSt7__cxx1112basic_stringIcSt11char_traitsIcESaIcEEE
libKF5SyntaxHighlighting.so.5:_ZGTtNSt12domain_errorC2EPKc
libKF5SyntaxHighlighting.so.5:_ZGTtNSt12domain_errorC2ERKNSt7__cxx1112basic_stringIcSt11char_traitsIcESaIcEEE
libKF5SyntaxHighlighting.so.5:_ZGTtNSt12domain_errorD0Ev
libKF5SyntaxHighlighting.so.5:_ZGTtNSt12domain_errorD1Ev
libKF5SyntaxHighlighting.so.5:_ZGTtNSt12domain_errorD2Ev
libKF5SyntaxHighlighting.so.5:_ZGTtNSt12length_errorC1EPKc
libKF5SyntaxHighlighting.so.5:_ZGTtNSt12length_errorC1ERKNSt7__cxx1112basic_stringIcSt11char_traitsIcESaIcEEE
libKF5SyntaxHighlighting.so.5:_ZGTtNSt12length_errorC2EPKc
libKF5SyntaxHighlighting.so.5:_ZGTtNSt12length_errorC2ERKNSt7__cxx1112basic_stringIcSt11char_traitsIcESaIcEEE
libKF5SyntaxHighlighting.so.5:_ZGTtNSt12length_errorD0Ev
libKF5SyntaxHighlighting.so.5:_ZGTtNSt12length_errorD1Ev
libKF5SyntaxHighlighting.so.5:_ZGTtNSt12length_errorD2Ev
libKF5SyntaxHighlighting.so.5:_ZGTtNSt12out_of_rangeC1EPKc
libKF5SyntaxHighlighting.so.5:_ZGTtNSt12out_of_rangeC1ERKNSt7__cxx1112basic_stringIcSt11char_traitsIcESaIcEEE
libKF5SyntaxHighlighting.so.5:_ZGTtNSt12out_of_rangeC2EPKc
libKF5SyntaxHighlighting.so.5:_ZGTtNSt12out_of_rangeC2ERKNSt7__cxx1112basic_stringIcSt11char_traitsIcESaIcEEE
libKF5SyntaxHighlighting.so.5:_ZGTtNSt12out_of_rangeD0Ev
libKF5SyntaxHighlighting.so.5:_ZGTtNSt12out_of_rangeD1Ev
libKF5SyntaxHighlighting.so.5:_ZGTtNSt12out_of_rangeD2Ev
libKF5SyntaxHighlighting.so.5:_ZGTtNSt13runtime_errorC1EPKc
libKF5SyntaxHighlighting.so.5:_ZGTtNSt13runtime_errorC1ERKNSt7__cxx1112basic_stringIcSt11char_traitsIcESaIcEEE
libKF5SyntaxHighlighting.so.5:_ZGTtNSt13runtime_errorC2EPKc
libKF5SyntaxHighlighting.so.5:_ZGTtNSt13runtime_errorC2ERKNSt7__cxx1112basic_stringIcSt11char_traitsIcESaIcEEE
libKF5SyntaxHighlighting.so.5:_ZGTtNSt13runtime_errorD0Ev
libKF5SyntaxHighlighting.so.5:_ZGTtNSt13runtime_errorD1Ev
libKF5SyntaxHighlighting.so.5:_ZGTtNSt13runtime_errorD2Ev
libKF5SyntaxHighlighting.so.5:_ZGTtNSt14overflow_errorC1EPKc
libKF5SyntaxHighlighting.so.5:_ZGTtNSt14overflow_errorC1ERKNSt7__cxx1112basic_stringIcSt11char_traitsIcESaIcEEE
libKF5SyntaxHighlighting.so.5:_ZGTtNSt14overflow_errorC2EPKc
libKF5SyntaxHighlighting.so.5:_ZGTtNSt14overflow_errorC2ERKNSt7__cxx1112basic_stringIcSt11char_traitsIcESaIcEEE
libKF5SyntaxHighlighting.so.5:_ZGTtNSt14overflow_errorD0Ev
libKF5SyntaxHighlighting.so.5:_ZGTtNSt14overflow_errorD1Ev
libKF5SyntaxHighlighting.so.5:_ZGTtNSt14overflow_errorD2Ev
libKF5SyntaxHighlighting.so.5:_ZGTtNSt15underflow_errorC1EPKc
libKF5SyntaxHighlighting.so.5:_ZGTtNSt15underflow_errorC1ERKNSt7__cxx1112basic_stringIcSt11char_traitsIcESaIcEEE
libKF5SyntaxHighlighting.so.5:_ZGTtNSt15underflow_errorC2EPKc
libKF5SyntaxHighlighting.so.5:_ZGTtNSt15underflow_errorC2ERKNSt7__cxx1112basic_stringIcSt11char_traitsIcESaIcEEE
libKF5SyntaxHighlighting.so.5:_ZGTtNSt15underflow_errorD0Ev
libKF5SyntaxHighlighting.so.5:_ZGTtNSt15underflow_errorD1Ev
libKF5SyntaxHighlighting.so.5:_ZGTtNSt15underflow_errorD2Ev
libKF5SyntaxHighlighting.so.5:_ZGTtNSt16invalid_argumentC1EPKc
libKF5SyntaxHighlighting.so.5:_ZGTtNSt16invalid_argumentC1ERKNSt7__cxx1112basic_stringIcSt11char_traitsIcESaIcEEE
libKF5SyntaxHighlighting.so.5:_ZGTtNSt16invalid_argumentC2EPKc
libKF5SyntaxHighlighting.so.5:_ZGTtNSt16invalid_argumentC2ERKNSt7__cxx1112basic_stringIcSt11char_traitsIcESaIcEEE
libKF5SyntaxHighlighting.so.5:_ZGTtNSt16invalid_argumentD0Ev
libKF5SyntaxHighlighting.so.5:_ZGTtNSt16invalid_argumentD1Ev
libKF5SyntaxHighlighting.so.5:_ZGTtNSt16invalid_argumentD2Ev
libKF5SyntaxHighlighting.so.5:_ZN10__cxxabiv111__terminateEPFvvE
libKF5SyntaxHighlighting.so.5:_ZN10__cxxabiv112__unexpectedEPFvvE
libKF5SyntaxHighlighting.so.5:_ZN10__cxxabiv115__forced_unwindD0Ev
libKF5SyntaxHighlighting.so.5:_ZN10__cxxabiv115__forced_unwindD1Ev
libKF5SyntaxHighlighting.so.5:_ZN10__cxxabiv115__forced_unwindD2Ev
libKF5SyntaxHighlighting.so.5:_ZN10__cxxabiv117__class_type_infoD0Ev
libKF5SyntaxHighlighting.so.5:_ZN10__cxxabiv117__class_type_infoD1Ev
libKF5SyntaxHighlighting.so.5:_ZN10__cxxabiv117__class_type_infoD2Ev
libKF5SyntaxHighlighting.so.5:_ZN10__cxxabiv119__foreign_exceptionD0Ev
libKF5SyntaxHighlighting.so.5:_ZN10__cxxabiv119__foreign_exceptionD1Ev
libKF5SyntaxHighlighting.so.5:_ZN10__cxxabiv119__foreign_exceptionD2Ev
libKF5SyntaxHighlighting.so.5:_ZN10__cxxabiv120__si_class_type_infoD0Ev
libKF5SyntaxHighlighting.so.5:_ZN10__cxxabiv120__si_class_type_infoD1Ev
libKF5SyntaxHighlighting.so.5:_ZN10__cxxabiv120__si_class_type_infoD2Ev
libKF5SyntaxHighlighting.so.5:_ZN10__cxxabiv121__vmi_class_type_infoD0Ev
libKF5SyntaxHighlighting.so.5:_ZN10__cxxabiv121__vmi_class_type_infoD1Ev
libKF5SyntaxHighlighting.so.5:_ZN10__cxxabiv121__vmi_class_type_infoD2Ev
libKF5SyntaxHighlighting.so.5:_ZN19KSyntaxHighlighting10Definition14setKeywordListERK7QStringRK11QStringList
libKF5SyntaxHighlighting.so.5:_ZN19KSyntaxHighlighting10DefinitionC1EOS0_
libKF5SyntaxHighlighting.so.5:_ZN19KSyntaxHighlighting10DefinitionC1EOSt10shared_ptrINS_14DefinitionDataEE
libKF5SyntaxHighlighting.so.5:_ZN19KSyntaxHighlighting10DefinitionC1ERKS0_
libKF5SyntaxHighlighting.so.5:_ZN19KSyntaxHighlighting10DefinitionC1Ev
libKF5SyntaxHighlighting.so.5:_ZN19KSyntaxHighlighting10DefinitionC2EOS0_
libKF5SyntaxHighlighting.so.5:_ZN19KSyntaxHighlighting10DefinitionC2EOSt10shared_ptrINS_14DefinitionDataEE
libKF5SyntaxHighlighting.so.5:_ZN19KSyntaxHighlighting10DefinitionC2ERKS0_
libKF5SyntaxHighlighting.so.5:_ZN19KSyntaxHighlighting10DefinitionC2Ev
libKF5SyntaxHighlighting.so.5:_ZN19KSyntaxHighlighting10DefinitionD1Ev
libKF5SyntaxHighlighting.so.5:_ZN19KSyntaxHighlighting10DefinitionD2Ev
libKF5SyntaxHighlighting.so.5:_ZN19KSyntaxHighlighting10DefinitionaSEOS0_
libKF5SyntaxHighlighting.so.5:_ZN19KSyntaxHighlighting10DefinitionaSERKS0_
libKF5SyntaxHighlighting.so.5:_ZN19KSyntaxHighlighting10Repository12defaultThemeENS0_12DefaultThemeE
libKF5SyntaxHighlighting.so.5:_ZN19KSyntaxHighlighting10Repository15themeForPaletteERK8QPalette
libKF5SyntaxHighlighting.so.5:_ZN19KSyntaxHighlighting10Repository19addCustomSearchPathERK7QString
libKF5SyntaxHighlighting.so.5:_ZN19KSyntaxHighlighting10Repository6reloadEv
libKF5SyntaxHighlighting.so.5:_ZN19KSyntaxHighlighting10RepositoryC1Ev
libKF5SyntaxHighlighting.so.5:_ZN19KSyntaxHighlighting10RepositoryC2Ev
libKF5SyntaxHighlighting.so.5:_ZN19KSyntaxHighlighting10RepositoryD1Ev
libKF5SyntaxHighlighting.so.5:_ZN19KSyntaxHighlighting10RepositoryD2Ev
libKF5SyntaxHighlighting.so.5:_ZN19KSyntaxHighlighting13FoldingRegionC1ENS0_4TypeEt
libKF5SyntaxHighlighting.so.5:_ZN19KSyntaxHighlighting13FoldingRegionC1Ev
libKF5SyntaxHighlighting.so.5:_ZN19KSyntaxHighlighting13FoldingRegionC2ENS0_4TypeEt
libKF5SyntaxHighlighting.so.5:_ZN19KSyntaxHighlighting13FoldingRegionC2Ev
libKF5SyntaxHighlighting.so.5:_ZN19KSyntaxHighlighting15AnsiHighlighter11applyFormatEiiRKNS_6FormatE
libKF5SyntaxHighlighting.so.5:_ZN19KSyntaxHighlighting15AnsiHighlighter13highlightDataEP9QIODeviceNS0_10AnsiFormatEb6QFlagsINS0_11TraceOptionEE
libKF5SyntaxHighlighting.so.5:_ZN19KSyntaxHighlighting15AnsiHighlighter13highlightFileERK7QStringNS0_10AnsiFormatEb6QFlagsINS0_11TraceOptionEE
libKF5SyntaxHighlighting.so.5:_ZN19KSyntaxHighlighting15AnsiHighlighter13setOutputFileEP8_IO_FILE
libKF5SyntaxHighlighting.so.5:_ZN19KSyntaxHighlighting15AnsiHighlighter13setOutputFileERK7QString
libKF5SyntaxHighlighting.so.5:_ZN19KSyntaxHighlighting15AnsiHighlighterC1Ev
libKF5SyntaxHighlighting.so.5:_ZN19KSyntaxHighlighting15AnsiHighlighterC2Ev
libKF5SyntaxHighlighting.so.5:_ZN19KSyntaxHighlighting15AnsiHighlighterD0Ev
libKF5SyntaxHighlighting.so.5:_ZN19KSyntaxHighlighting15AnsiHighlighterD1Ev
libKF5SyntaxHighlighting.so.5:_ZN19KSyntaxHighlighting15AnsiHighlighterD2Ev
libKF5SyntaxHighlighting.so.5:_ZN19KSyntaxHighlighting15HtmlHighlighter11applyFormatEiiRKNS_6FormatE
libKF5SyntaxHighlighting.so.5:_ZN19KSyntaxHighlighting15HtmlHighlighter13highlightDataEP9QIODeviceRK7QString
libKF5SyntaxHighlighting.so.5:_ZN19KSyntaxHighlighting15HtmlHighlighter13highlightFileERK7QStringS3_
libKF5SyntaxHighlighting.so.5:_ZN19KSyntaxHighlighting15HtmlHighlighter13setOutputFileEP8_IO_FILE
libKF5SyntaxHighlighting.so.5:_ZN19KSyntaxHighlighting15HtmlHighlighter13setOutputFileERK7QString
libKF5SyntaxHighlighting.so.5:_ZN19KSyntaxHighlighting15HtmlHighlighterC1Ev
libKF5SyntaxHighlighting.so.5:_ZN19KSyntaxHighlighting15HtmlHighlighterC2Ev
libKF5SyntaxHighlighting.so.5:_ZN19KSyntaxHighlighting15HtmlHighlighterD0Ev
libKF5SyntaxHighlighting.so.5:_ZN19KSyntaxHighlighting15HtmlHighlighterD1Ev
libKF5SyntaxHighlighting.so.5:_ZN19KSyntaxHighlighting15HtmlHighlighterD2Ev
libKF5SyntaxHighlighting.so.5:_ZN19KSyntaxHighlighting15WildcardMatcher10exactMatchE11QStringViewS1_
libKF5SyntaxHighlighting.so.5:_ZN19KSyntaxHighlighting17SyntaxHighlighter11applyFormatEiiRKNS_6FormatE
libKF5SyntaxHighlighting.so.5:_ZN19KSyntaxHighlighting17SyntaxHighlighter11qt_metacallEN11QMetaObject4CallEiPPv
libKF5SyntaxHighlighting.so.5:_ZN19KSyntaxHighlighting17SyntaxHighlighter11qt_metacastEPKc
libKF5SyntaxHighlighting.so.5:_ZN19KSyntaxHighlighting17SyntaxHighlighter12applyFoldingEiiNS_13FoldingRegionE
libKF5SyntaxHighlighting.so.5:_ZN19KSyntaxHighlighting17SyntaxHighlighter13setDefinitionERKNS_10DefinitionE
libKF5SyntaxHighlighting.so.5:_ZN19KSyntaxHighlighting17SyntaxHighlighter14highlightBlockERK7QString
libKF5SyntaxHighlighting.so.5:_ZN19KSyntaxHighlighting17SyntaxHighlighterC1EP13QTextDocument
libKF5SyntaxHighlighting.so.5:_ZN19KSyntaxHighlighting17SyntaxHighlighterC1EP7QObject
libKF5SyntaxHighlighting.so.5:_ZN19KSyntaxHighlighting17SyntaxHighlighterC2EP13QTextDocument
libKF5SyntaxHighlighting.so.5:_ZN19KSyntaxHighlighting17SyntaxHighlighterC2EP7QObject
libKF5SyntaxHighlighting.so.5:_ZN19KSyntaxHighlighting17SyntaxHighlighterD0Ev
libKF5SyntaxHighlighting.so.5:_ZN19KSyntaxHighlighting17SyntaxHighlighterD1Ev
libKF5SyntaxHighlighting.so.5:_ZN19KSyntaxHighlighting17SyntaxHighlighterD2Ev
libKF5SyntaxHighlighting.so.5:_ZN19KSyntaxHighlighting19AbstractHighlighter12applyFoldingEiiNS_13FoldingRegionE
libKF5SyntaxHighlighting.so.5:_ZN19KSyntaxHighlighting19AbstractHighlighter13highlightLineE11QStringViewRKNS_5StateE
libKF5SyntaxHighlighting.so.5:_ZN19KSyntaxHighlighting19AbstractHighlighter13highlightLineERK7QStringRKNS_5StateE
libKF5SyntaxHighlighting.so.5:_ZN19KSyntaxHighlighting19AbstractHighlighter13setDefinitionERKNS_10DefinitionE
libKF5SyntaxHighlighting.so.5:_ZN19KSyntaxHighlighting19AbstractHighlighter8setThemeERKNS_5ThemeE
libKF5SyntaxHighlighting.so.5:_ZN19KSyntaxHighlighting19AbstractHighlighterC1EPNS_26AbstractHighlighterPrivateE
libKF5SyntaxHighlighting.so.5:_ZN19KSyntaxHighlighting19AbstractHighlighterC1Ev
libKF5SyntaxHighlighting.so.5:_ZN19KSyntaxHighlighting19AbstractHighlighterC2EPNS_26AbstractHighlighterPrivateE
libKF5SyntaxHighlighting.so.5:_ZN19KSyntaxHighlighting19AbstractHighlighterC2Ev
libKF5SyntaxHighlighting.so.5:_ZN19KSyntaxHighlighting19AbstractHighlighterD0Ev
libKF5SyntaxHighlighting.so.5:_ZN19KSyntaxHighlighting19AbstractHighlighterD1Ev
libKF5SyntaxHighlighting.so.5:_ZN19KSyntaxHighlighting19AbstractHighlighterD2Ev
libKF5SyntaxHighlighting.so.5:_ZN19KSyntaxHighlighting20DefinitionDownloader11qt_metacallEN11QMetaObject4CallEiPPv
libKF5SyntaxHighlighting.so.5:_ZN19KSyntaxHighlighting20DefinitionDownloader11qt_metacastEPKc
libKF5SyntaxHighlighting.so.5:_ZN19KSyntaxHighlighting20DefinitionDownloader18informationMessageERK7QString
libKF5SyntaxHighlighting.so.5:_ZN19KSyntaxHighlighting20DefinitionDownloader4doneEv
libKF5SyntaxHighlighting.so.5:_ZN19KSyntaxHighlighting20DefinitionDownloader5startEv
libKF5SyntaxHighlighting.so.5:_ZN19KSyntaxHighlighting20DefinitionDownloaderC1EPNS_10RepositoryEP7QObject
libKF5SyntaxHighlighting.so.5:_ZN19KSyntaxHighlighting20DefinitionDownloaderC2EPNS_10RepositoryEP7QObject
libKF5SyntaxHighlighting.so.5:_ZN19KSyntaxHighlighting20DefinitionDownloaderD0Ev
libKF5SyntaxHighlighting.so.5:_ZN19KSyntaxHighlighting20DefinitionDownloaderD1Ev
libKF5SyntaxHighlighting.so.5:_ZN19KSyntaxHighlighting20DefinitionDownloaderD2Ev
libKF5SyntaxHighlighting.so.5:_ZN19KSyntaxHighlighting5StateC1ERKS0_
libKF5SyntaxHighlighting.so.5:_ZN19KSyntaxHighlighting5StateC1Ev
libKF5SyntaxHighlighting.so.5:_ZN19KSyntaxHighlighting5StateC2ERKS0_
libKF5SyntaxHighlighting.so.5:_ZN19KSyntaxHighlighting5StateC2Ev
libKF5SyntaxHighlighting.so.5:_ZN19KSyntaxHighlighting5StateD1Ev
libKF5SyntaxHighlighting.so.5:_ZN19KSyntaxHighlighting5StateD2Ev
libKF5SyntaxHighlighting.so.5:_ZN19KSyntaxHighlighting5StateaSERKS0_
libKF5SyntaxHighlighting.so.5:_ZN19KSyntaxHighlighting5ThemeC1EPNS_9ThemeDataE
libKF5SyntaxHighlighting.so.5:_ZN19KSyntaxHighlighting5ThemeC1ERKS0_
libKF5SyntaxHighlighting.so.5:_ZN19KSyntaxHighlighting5ThemeC1Ev
libKF5SyntaxHighlighting.so.5:_ZN19KSyntaxHighlighting5ThemeC2EPNS_9ThemeDataE
libKF5SyntaxHighlighting.so.5:_ZN19KSyntaxHighlighting5ThemeC2ERKS0_
libKF5SyntaxHighlighting.so.5:_ZN19KSyntaxHighlighting5ThemeC2Ev
libKF5SyntaxHighlighting.so.5:_ZN19KSyntaxHighlighting5ThemeD1Ev
libKF5SyntaxHighlighting.so.5:_ZN19KSyntaxHighlighting5ThemeD2Ev
libKF5SyntaxHighlighting.so.5:_ZN19KSyntaxHighlighting5ThemeaSERKS0_
libKF5SyntaxHighlighting.so.5:_ZN19KSyntaxHighlighting6FormatC1ERKS0_
libKF5SyntaxHighlighting.so.5:_ZN19KSyntaxHighlighting6FormatC1Ev
libKF5SyntaxHighlighting.so.5:_ZN19KSyntaxHighlighting6FormatC2ERKS0_
libKF5SyntaxHighlighting.so.5:_ZN19KSyntaxHighlighting6FormatC2Ev
libKF5SyntaxHighlighting.so.5:_ZN19KSyntaxHighlighting6FormatD1Ev
libKF5SyntaxHighlighting.so.5:_ZN19KSyntaxHighlighting6FormatD2Ev
libKF5SyntaxHighlighting.so.5:_ZN19KSyntaxHighlighting6FormataSERKS0_
libKF5SyntaxHighlighting.so.5:_ZN9__gnu_cxx15__concat_size_tEPcmm
libKF5SyntaxHighlighting.so.5:_ZN9__gnu_cxx15__snprintf_liteEPcmPKcP13__va_list_tag
libKF5SyntaxHighlighting.so.5:_ZN9__gnu_cxx20recursive_init_errorC1Ev
libKF5SyntaxHighlighting.so.5:_ZN9__gnu_cxx20recursive_init_errorC2Ev
libKF5SyntaxHighlighting.so.5:_ZN9__gnu_cxx20recursive_init_errorD0Ev
libKF5SyntaxHighlighting.so.5:_ZN9__gnu_cxx20recursive_init_errorD1Ev
libKF5SyntaxHighlighting.so.5:_ZN9__gnu_cxx20recursive_init_errorD2Ev
libKF5SyntaxHighlighting.so.5:_ZN9__gnu_cxx26__throw_insufficient_spaceEPKcS1_
libKF5SyntaxHighlighting.so.5:_ZN9__gnu_cxx27__verbose_terminate_handlerEv
libKF5SyntaxHighlighting.so.5:_ZN9__gnu_cxx9__freeresEv
libKF5SyntaxHighlighting.so.5:_ZNK10__cxxabiv117__class_type_info10__do_catchEPKSt9type_infoPPvj
libKF5SyntaxHighlighting.so.5:_ZNK10__cxxabiv117__class_type_info11__do_upcastEPKS0_PKvRNS0_15__upcast_resultE
libKF5SyntaxHighlighting.so.5:_ZNK10__cxxabiv117__class_type_info11__do_upcastEPKS0_PPv
libKF5SyntaxHighlighting.so.5:_ZNK10__cxxabiv117__class_type_info12__do_dyncastElNS0_10__sub_kindEPKS0_PKvS3_S5_RNS0_16__dyncast_resultE
libKF5SyntaxHighlighting.so.5:_ZNK10__cxxabiv117__class_type_info20__do_find_public_srcElPKvPKS0_S2_
libKF5SyntaxHighlighting.so.5:_ZNK10__cxxabiv120__si_class_type_info11__do_upcastEPKNS_17__class_type_infoEPKvRNS1_15__upcast_resultE
libKF5SyntaxHighlighting.so.5:_ZNK10__cxxabiv120__si_class_type_info12__do_dyncastElNS_17__class_type_info10__sub_kindEPKS1_PKvS4_S6_RNS1_16__dyncast_resultE
libKF5SyntaxHighlighting.so.5:_ZNK10__cxxabiv120__si_class_type_info20__do_find_public_srcElPKvPKNS_17__class_type_infoES2_
libKF5SyntaxHighlighting.so.5:_ZNK10__cxxabiv121__vmi_class_type_info11__do_upcastEPKNS_17__class_type_infoEPKvRNS1_15__upcast_resultE
libKF5SyntaxHighlighting.so.5:_ZNK10__cxxabiv121__vmi_class_type_info12__do_dyncastElNS_17__class_type_info10__sub_kindEPKS1_PKvS4_S6_RNS1_16__dyncast_resultE
libKF5SyntaxHighlighting.so.5:_ZNK10__cxxabiv121__vmi_class_type_info20__do_find_public_srcElPKvPKNS_17__class_type_infoES2_
libKF5SyntaxHighlighting.so.5:_ZNK19KSyntaxHighlighting10Definition10extensionsEv
libKF5SyntaxHighlighting.so.5:_ZNK19KSyntaxHighlighting10Definition11keywordListERK7QString
libKF5SyntaxHighlighting.so.5:_ZNK19KSyntaxHighlighting10Definition12keywordListsEv
libKF5SyntaxHighlighting.so.5:_ZNK19KSyntaxHighlighting10Definition14foldingEnabledEv
libKF5SyntaxHighlighting.so.5:_ZNK19KSyntaxHighlighting10Definition14translatedNameEv
libKF5SyntaxHighlighting.so.5:_ZNK19KSyntaxHighlighting10Definition15isWordDelimiterE5QChar
libKF5SyntaxHighlighting.so.5:_ZNK19KSyntaxHighlighting10Definition17foldingIgnoreListEv
libKF5SyntaxHighlighting.so.5:_ZNK19KSyntaxHighlighting10Definition17translatedSectionEv
libKF5SyntaxHighlighting.so.5:_ZNK19KSyntaxHighlighting10Definition18characterEncodingsEv
libKF5SyntaxHighlighting.so.5:_ZNK19KSyntaxHighlighting10Definition19includedDefinitionsEv
libKF5SyntaxHighlighting.so.5:_ZNK19KSyntaxHighlighting10Definition19isWordWrapDelimiterE5QChar
libKF5SyntaxHighlighting.so.5:_ZNK19KSyntaxHighlighting10Definition22multiLineCommentMarkerEv
libKF5SyntaxHighlighting.so.5:_ZNK19KSyntaxHighlighting10Definition23singleLineCommentMarkerEv
libKF5SyntaxHighlighting.so.5:_ZNK19KSyntaxHighlighting10Definition25singleLineCommentPositionEv
libKF5SyntaxHighlighting.so.5:_ZNK19KSyntaxHighlighting10Definition30indentationBasedFoldingEnabledEv
libKF5SyntaxHighlighting.so.5:_ZNK19KSyntaxHighlighting10Definition4nameEv
libKF5SyntaxHighlighting.so.5:_ZNK19KSyntaxHighlighting10Definition5styleEv
libKF5SyntaxHighlighting.so.5:_ZNK19KSyntaxHighlighting10Definition6authorEv
libKF5SyntaxHighlighting.so.5:_ZNK19KSyntaxHighlighting10Definition7formatsEv
libKF5SyntaxHighlighting.so.5:_ZNK19KSyntaxHighlighting10Definition7isValidEv
libKF5SyntaxHighlighting.so.5:_ZNK19KSyntaxHighlighting10Definition7licenseEv
libKF5SyntaxHighlighting.so.5:_ZNK19KSyntaxHighlighting10Definition7sectionEv
libKF5SyntaxHighlighting.so.5:_ZNK19KSyntaxHighlighting10Definition7versionEv
libKF5SyntaxHighlighting.so.5:_ZNK19KSyntaxHighlighting10Definition8filePathEv
libKF5SyntaxHighlighting.so.5:_ZNK19KSyntaxHighlighting10Definition8indenterEv
libKF5SyntaxHighlighting.so.5:_ZNK19KSyntaxHighlighting10Definition8isHiddenEv
libKF5SyntaxHighlighting.so.5:_ZNK19KSyntaxHighlighting10Definition8priorityEv
libKF5SyntaxHighlighting.so.5:_ZNK19KSyntaxHighlighting10Definition9mimeTypesEv
libKF5SyntaxHighlighting.so.5:_ZNK19KSyntaxHighlighting10DefinitioneqERKS0_
libKF5SyntaxHighlighting.so.5:_ZNK19KSyntaxHighlighting10DefinitionneERKS0_
libKF5SyntaxHighlighting.so.5:_ZNK19KSyntaxHighlighting10Repository11definitionsEv
libKF5SyntaxHighlighting.so.5:_ZNK19KSyntaxHighlighting10Repository12defaultThemeENS0_12DefaultThemeE
libKF5SyntaxHighlighting.so.5:_ZNK19KSyntaxHighlighting10Repository15themeForPaletteERK8QPalette
libKF5SyntaxHighlighting.so.5:_ZNK19KSyntaxHighlighting10Repository17customSearchPathsEv
libKF5SyntaxHighlighting.so.5:_ZNK19KSyntaxHighlighting10Repository17definitionForNameERK7QString
libKF5SyntaxHighlighting.so.5:_ZNK19KSyntaxHighlighting10Repository21definitionForFileNameERK7QString
libKF5SyntaxHighlighting.so.5:_ZNK19KSyntaxHighlighting10Repository21definitionForMimeTypeERK7QString
libKF5SyntaxHighlighting.so.5:_ZNK19KSyntaxHighlighting10Repository22definitionsForFileNameERK7QString
libKF5SyntaxHighlighting.so.5:_ZNK19KSyntaxHighlighting10Repository22definitionsForMimeTypeERK7QString
libKF5SyntaxHighlighting.so.5:_ZNK19KSyntaxHighlighting10Repository5themeERK7QString
libKF5SyntaxHighlighting.so.5:_ZNK19KSyntaxHighlighting10Repository6themesEv
libKF5SyntaxHighlighting.so.5:_ZNK19KSyntaxHighlighting13FoldingRegion2idEv
libKF5SyntaxHighlighting.so.5:_ZNK19KSyntaxHighlighting13FoldingRegion4typeEv
libKF5SyntaxHighlighting.so.5:_ZNK19KSyntaxHighlighting13FoldingRegion7isValidEv
libKF5SyntaxHighlighting.so.5:_ZNK19KSyntaxHighlighting13FoldingRegioneqERKS0_
libKF5SyntaxHighlighting.so.5:_ZNK19KSyntaxHighlighting17SyntaxHighlighter10metaObjectEv
libKF5SyntaxHighlighting.so.5:_ZNK19KSyntaxHighlighting17SyntaxHighlighter19startsFoldingRegionERK10QTextBlock
libKF5SyntaxHighlighting.so.5:_ZNK19KSyntaxHighlighting17SyntaxHighlighter20findFoldingRegionEndERK10QTextBlock
libKF5SyntaxHighlighting.so.5:_ZNK19KSyntaxHighlighting19AbstractHighlighter10definitionEv
libKF5SyntaxHighlighting.so.5:_ZNK19KSyntaxHighlighting19AbstractHighlighter5themeEv
libKF5SyntaxHighlighting.so.5:_ZNK19KSyntaxHighlighting20DefinitionDownloader10metaObjectEv
libKF5SyntaxHighlighting.so.5:_ZNK19KSyntaxHighlighting5State30indentationBasedFoldingEnabledEv
libKF5SyntaxHighlighting.so.5:_ZNK19KSyntaxHighlighting5StateeqERKS0_
libKF5SyntaxHighlighting.so.5:_ZNK19KSyntaxHighlighting5StateneERKS0_
libKF5SyntaxHighlighting.so.5:_ZNK19KSyntaxHighlighting5Theme10isReadOnlyEv
libKF5SyntaxHighlighting.so.5:_ZNK19KSyntaxHighlighting5Theme11editorColorENS0_15EditorColorRoleE
libKF5SyntaxHighlighting.so.5:_ZNK19KSyntaxHighlighting5Theme11isUnderlineENS0_9TextStyleE
libKF5SyntaxHighlighting.so.5:_ZNK19KSyntaxHighlighting5Theme14translatedNameEv
libKF5SyntaxHighlighting.so.5:_ZNK19KSyntaxHighlighting5Theme15backgroundColorENS0_9TextStyleE
libKF5SyntaxHighlighting.so.5:_ZNK19KSyntaxHighlighting5Theme15isStrikeThroughENS0_9TextStyleE
libKF5SyntaxHighlighting.so.5:_ZNK19KSyntaxHighlighting5Theme17selectedTextColorENS0_9TextStyleE
libKF5SyntaxHighlighting.so.5:_ZNK19KSyntaxHighlighting5Theme23selectedBackgroundColorENS0_9TextStyleE
libKF5SyntaxHighlighting.so.5:_ZNK19KSyntaxHighlighting5Theme4nameEv
libKF5SyntaxHighlighting.so.5:_ZNK19KSyntaxHighlighting5Theme6isBoldENS0_9TextStyleE
libKF5SyntaxHighlighting.so.5:_ZNK19KSyntaxHighlighting5Theme7isValidEv
libKF5SyntaxHighlighting.so.5:_ZNK19KSyntaxHighlighting5Theme8filePathEv
libKF5SyntaxHighlighting.so.5:_ZNK19KSyntaxHighlighting5Theme8isItalicENS0_9TextStyleE
libKF5SyntaxHighlighting.so.5:_ZNK19KSyntaxHighlighting5Theme9textColorENS0_9TextStyleE
libKF5SyntaxHighlighting.so.5:_ZNK19KSyntaxHighlighting6Format10spellCheckEv
libKF5SyntaxHighlighting.so.5:_ZNK19KSyntaxHighlighting6Format11isUnderlineERKNS_5ThemeE
libKF5SyntaxHighlighting.so.5:_ZNK19KSyntaxHighlighting6Format12hasTextColorERKNS_5ThemeE
libKF5SyntaxHighlighting.so.5:_ZNK19KSyntaxHighlighting6Format15backgroundColorERKNS_5ThemeE
libKF5SyntaxHighlighting.so.5:_ZNK19KSyntaxHighlighting6Format15hasBoldOverrideEv
libKF5SyntaxHighlighting.so.5:_ZNK19KSyntaxHighlighting6Format15isStrikeThroughERKNS_5ThemeE
libKF5SyntaxHighlighting.so.5:_ZNK19KSyntaxHighlighting6Format17hasItalicOverrideEv
libKF5SyntaxHighlighting.so.5:_ZNK19KSyntaxHighlighting6Format17selectedTextColorERKNS_5ThemeE
libKF5SyntaxHighlighting.so.5:_ZNK19KSyntaxHighlighting6Format18hasBackgroundColorERKNS_5ThemeE
libKF5SyntaxHighlighting.so.5:_ZNK19KSyntaxHighlighting6Format18isDefaultTextStyleERKNS_5ThemeE
libKF5SyntaxHighlighting.so.5:_ZNK19KSyntaxHighlighting6Format20hasTextColorOverrideEv
libKF5SyntaxHighlighting.so.5:_ZNK19KSyntaxHighlighting6Format20hasUnderlineOverrideEv
libKF5SyntaxHighlighting.so.5:_ZNK19KSyntaxHighlighting6Format23selectedBackgroundColorERKNS_5ThemeE
libKF5SyntaxHighlighting.so.5:_ZNK19KSyntaxHighlighting6Format24hasStrikeThroughOverrideEv
libKF5SyntaxHighlighting.so.5:_ZNK19KSyntaxHighlighting6Format26hasBackgroundColorOverrideEv
libKF5SyntaxHighlighting.so.5:_ZNK19KSyntaxHighlighting6Format28hasSelectedTextColorOverrideEv
libKF5SyntaxHighlighting.so.5:_ZNK19KSyntaxHighlighting6Format2idEv
libKF5SyntaxHighlighting.so.5:_ZNK19KSyntaxHighlighting6Format34hasSelectedBackgroundColorOverrideEv
libKF5SyntaxHighlighting.so.5:_ZNK19KSyntaxHighlighting6Format4nameEv
libKF5SyntaxHighlighting.so.5:_ZNK19KSyntaxHighlighting6Format6isBoldERKNS_5ThemeE
libKF5SyntaxHighlighting.so.5:_ZNK19KSyntaxHighlighting6Format7isValidEv
libKF5SyntaxHighlighting.so.5:_ZNK19KSyntaxHighlighting6Format8isItalicERKNS_5ThemeE
libKF5SyntaxHighlighting.so.5:_ZNK19KSyntaxHighlighting6Format9textColorERKNS_5ThemeE
libKF5SyntaxHighlighting.so.5:_ZNK19KSyntaxHighlighting6Format9textStyleEv
libKF5SyntaxHighlighting.so.5:_ZNKSt10bad_typeid4whatEv
libKF5SyntaxHighlighting.so.5:_ZNKSt11logic_error4whatEv
libKF5SyntaxHighlighting.so.5:_ZNKSt13bad_exception4whatEv
libKF5SyntaxHighlighting.so.5:_ZNKSt13random_device13_M_getentropyEv
libKF5SyntaxHighlighting.so.5:_ZNKSt13runtime_error4whatEv
libKF5SyntaxHighlighting.so.5:_ZNKSt20bad_array_new_length4whatEv
libKF5SyntaxHighlighting.so.5:_ZNKSt3_V214error_category10_M_messageEi
libKF5SyntaxHighlighting.so.5:_ZNKSt8bad_cast4whatEv
libKF5SyntaxHighlighting.so.5:_ZNKSt9bad_alloc4whatEv
libKF5SyntaxHighlighting.so.5:_ZNKSt9exception4whatEv
libKF5SyntaxHighlighting.so.5:_ZNKSt9type_info10__do_catchEPKS_PPvj
libKF5SyntaxHighlighting.so.5:_ZNKSt9type_info11__do_upcastEPKN10__cxxabiv117__class_type_infoEPPv
libKF5SyntaxHighlighting.so.5:_ZNKSt9type_info14__is_pointer_pEv
libKF5SyntaxHighlighting.so.5:_ZNKSt9type_info15__is_function_pEv
libKF5SyntaxHighlighting.so.5:_ZNSt10bad_typeidD0Ev
libKF5SyntaxHighlighting.so.5:_ZNSt10bad_typeidD1Ev
libKF5SyntaxHighlighting.so.5:_ZNSt10bad_typeidD2Ev
libKF5SyntaxHighlighting.so.5:_ZNSt11logic_errorC1EOS_
libKF5SyntaxHighlighting.so.5:_ZNSt11logic_errorC1EPKc
libKF5SyntaxHighlighting.so.5:_ZNSt11logic_errorC1ERKS_
libKF5SyntaxHighlighting.so.5:_ZNSt11logic_errorC1ERKSs
libKF5SyntaxHighlighting.so.5:_ZNSt11logic_errorC2EOS_
libKF5SyntaxHighlighting.so.5:_ZNSt11logic_errorC2EPKc
libKF5SyntaxHighlighting.so.5:_ZNSt11logic_errorC2ERKS_
libKF5SyntaxHighlighting.so.5:_ZNSt11logic_errorC2ERKSs
libKF5SyntaxHighlighting.so.5:_ZNSt11logic_errorD0Ev
libKF5SyntaxHighlighting.so.5:_ZNSt11logic_errorD1Ev
libKF5SyntaxHighlighting.so.5:_ZNSt11logic_errorD2Ev
libKF5SyntaxHighlighting.so.5:_ZNSt11logic_erroraSEOS_
libKF5SyntaxHighlighting.so.5:_ZNSt11logic_erroraSERKS_
libKF5SyntaxHighlighting.so.5:_ZNSt11range_errorC1EPKc
libKF5SyntaxHighlighting.so.5:_ZNSt11range_errorC1ERKSs
libKF5SyntaxHighlighting.so.5:_ZNSt11range_errorC2EPKc
libKF5SyntaxHighlighting.so.5:_ZNSt11range_errorC2ERKSs
libKF5SyntaxHighlighting.so.5:_ZNSt11range_errorD0Ev
libKF5SyntaxHighlighting.so.5:_ZNSt11range_errorD1Ev
libKF5SyntaxHighlighting.so.5:_ZNSt11range_errorD2Ev
libKF5SyntaxHighlighting.so.5:_ZNSt12__cow_stringC1EOS_
libKF5SyntaxHighlighting.so.5:_ZNSt12__cow_stringC1EPKcm
libKF5SyntaxHighlighting.so.5:_ZNSt12__cow_stringC1ERKS_
libKF5SyntaxHighlighting.so.5:_ZNSt12__cow_stringC1ERKSs
libKF5SyntaxHighlighting.so.5:_ZNSt12__cow_stringC1Ev
libKF5SyntaxHighlighting.so.5:_ZNSt12__cow_stringC2EOS_
libKF5SyntaxHighlighting.so.5:_ZNSt12__cow_stringC2EPKcm
libKF5SyntaxHighlighting.so.5:_ZNSt12__cow_stringC2ERKS_
libKF5SyntaxHighlighting.so.5:_ZNSt12__cow_stringC2ERKSs
libKF5SyntaxHighlighting.so.5:_ZNSt12__cow_stringC2Ev
libKF5SyntaxHighlighting.so.5:_ZNSt12__cow_stringD1Ev
libKF5SyntaxHighlighting.so.5:_ZNSt12__cow_stringD2Ev
libKF5SyntaxHighlighting.so.5:_ZNSt12__cow_stringaSEOS_
libKF5SyntaxHighlighting.so.5:_ZNSt12__cow_stringaSERKS_
libKF5SyntaxHighlighting.so.5:_ZNSt12__sso_stringC1EOS_
libKF5SyntaxHighlighting.so.5:_ZNSt12__sso_stringC1EPKcm
libKF5SyntaxHighlighting.so.5:_ZNSt12__sso_stringC1ERKNSt7__cxx1112basic_stringIcSt11char_traitsIcESaIcEEE
libKF5SyntaxHighlighting.so.5:_ZNSt12__sso_stringC1ERKS_
libKF5SyntaxHighlighting.so.5:_ZNSt12__sso_stringC1ERKSs
libKF5SyntaxHighlighting.so.5:_ZNSt12__sso_stringC1Ev
libKF5SyntaxHighlighting.so.5:_ZNSt12__sso_stringC2EOS_
libKF5SyntaxHighlighting.so.5:_ZNSt12__sso_stringC2EPKcm
libKF5SyntaxHighlighting.so.5:_ZNSt12__sso_stringC2ERKNSt7__cxx1112basic_stringIcSt11char_traitsIcESaIcEEE
libKF5SyntaxHighlighting.so.5:_ZNSt12__sso_stringC2ERKS_
libKF5SyntaxHighlighting.so.5:_ZNSt12__sso_stringC2ERKSs
libKF5SyntaxHighlighting.so.5:_ZNSt12__sso_stringC2Ev
libKF5SyntaxHighlighting.so.5:_ZNSt12__sso_stringD1Ev
libKF5SyntaxHighlighting.so.5:_ZNSt12__sso_stringD2Ev
libKF5SyntaxHighlighting.so.5:_ZNSt12__sso_stringaSEOS_
libKF5SyntaxHighlighting.so.5:_ZNSt12__sso_stringaSERKS_
libKF5SyntaxHighlighting.so.5:_ZNSt12domain_errorC1EPKc
libKF5SyntaxHighlighting.so.5:_ZNSt12domain_errorC1ERKSs
libKF5SyntaxHighlighting.so.5:_ZNSt12domain_errorC2EPKc
libKF5SyntaxHighlighting.so.5:_ZNSt12domain_errorC2ERKSs
libKF5SyntaxHighlighting.so.5:_ZNSt12domain_errorD0Ev
libKF5SyntaxHighlighting.so.5:_ZNSt12domain_errorD1Ev
libKF5SyntaxHighlighting.so.5:_ZNSt12domain_errorD2Ev
libKF5SyntaxHighlighting.so.5:_ZNSt12length_errorC1EPKc
libKF5SyntaxHighlighting.so.5:_ZNSt12length_errorC1ERKSs
libKF5SyntaxHighlighting.so.5:_ZNSt12length_errorC2EPKc
libKF5SyntaxHighlighting.so.5:_ZNSt12length_errorC2ERKSs
libKF5SyntaxHighlighting.so.5:_ZNSt12length_errorD0Ev
libKF5SyntaxHighlighting.so.5:_ZNSt12length_errorD1Ev
libKF5SyntaxHighlighting.so.5:_ZNSt12length_errorD2Ev
libKF5SyntaxHighlighting.so.5:_ZNSt12out_of_rangeC1EPKc
libKF5SyntaxHighlighting.so.5:_ZNSt12out_of_rangeC1ERKSs
libKF5SyntaxHighlighting.so.5:_ZNSt12out_of_rangeC2EPKc
libKF5SyntaxHighlighting.so.5:_ZNSt12out_of_rangeC2ERKSs
libKF5SyntaxHighlighting.so.5:_ZNSt12out_of_rangeD0Ev
libKF5SyntaxHighlighting.so.5:_ZNSt12out_of_rangeD1Ev
libKF5SyntaxHighlighting.so.5:_ZNSt12out_of_rangeD2Ev
libKF5SyntaxHighlighting.so.5:_ZNSt13bad_exceptionD0Ev
libKF5SyntaxHighlighting.so.5:_ZNSt13bad_exceptionD1Ev
libKF5SyntaxHighlighting.so.5:_ZNSt13bad_exceptionD2Ev
libKF5SyntaxHighlighting.so.5:_ZNSt13random_device14_M_init_pretr1ERKNSt7__cxx1112basic_stringIcSt11char_traitsIcESaIcEEE
libKF5SyntaxHighlighting.so.5:_ZNSt13random_device14_M_init_pretr1ERKSs
libKF5SyntaxHighlighting.so.5:_ZNSt13random_device16_M_getval_pretr1Ev
libKF5SyntaxHighlighting.so.5:_ZNSt13random_device7_M_finiEv
libKF5SyntaxHighlighting.so.5:_ZNSt13random_device7_M_initEPKcm
libKF5SyntaxHighlighting.so.5:_ZNSt13random_device7_M_initERKNSt7__cxx1112basic_stringIcSt11char_traitsIcESaIcEEE
libKF5SyntaxHighlighting.so.5:_ZNSt13random_device7_M_initERKSs
libKF5SyntaxHighlighting.so.5:_ZNSt13random_device9_M_getvalEv
libKF5SyntaxHighlighting.so.5:_ZNSt13runtime_errorC1EOS_
libKF5SyntaxHighlighting.so.5:_ZNSt13runtime_errorC1EPKc
libKF5SyntaxHighlighting.so.5:_ZNSt13runtime_errorC1ERKS_
libKF5SyntaxHighlighting.so.5:_ZNSt13runtime_errorC1ERKSs
libKF5SyntaxHighlighting.so.5:_ZNSt13runtime_errorC2EOS_
libKF5SyntaxHighlighting.so.5:_ZNSt13runtime_errorC2EPKc
libKF5SyntaxHighlighting.so.5:_ZNSt13runtime_errorC2ERKS_
libKF5SyntaxHighlighting.so.5:_ZNSt13runtime_errorC2ERKSs
libKF5SyntaxHighlighting.so.5:_ZNSt13runtime_errorD0Ev
libKF5SyntaxHighlighting.so.5:_ZNSt13runtime_errorD1Ev
libKF5SyntaxHighlighting.so.5:_ZNSt13runtime_errorD2Ev
libKF5SyntaxHighlighting.so.5:_ZNSt13runtime_erroraSEOS_
libKF5SyntaxHighlighting.so.5:_ZNSt13runtime_erroraSERKS_
libKF5SyntaxHighlighting.so.5:_ZNSt14overflow_errorC1EPKc
libKF5SyntaxHighlighting.so.5:_ZNSt14overflow_errorC1ERKSs
libKF5SyntaxHighlighting.so.5:_ZNSt14overflow_errorC2EPKc
libKF5SyntaxHighlighting.so.5:_ZNSt14overflow_errorC2ERKSs
libKF5SyntaxHighlighting.so.5:_ZNSt14overflow_errorD0Ev
libKF5SyntaxHighlighting.so.5:_ZNSt14overflow_errorD1Ev
libKF5SyntaxHighlighting.so.5:_ZNSt14overflow_errorD2Ev
libKF5SyntaxHighlighting.so.5:_ZNSt15underflow_errorC1EPKc
libKF5SyntaxHighlighting.so.5:_ZNSt15underflow_errorC1ERKSs
libKF5SyntaxHighlighting.so.5:_ZNSt15underflow_errorC2EPKc
libKF5SyntaxHighlighting.so.5:_ZNSt15underflow_errorC2ERKSs
libKF5SyntaxHighlighting.so.5:_ZNSt15underflow_errorD0Ev
libKF5SyntaxHighlighting.so.5:_ZNSt15underflow_errorD1Ev
libKF5SyntaxHighlighting.so.5:_ZNSt15underflow_errorD2Ev
libKF5SyntaxHighlighting.so.5:_ZNSt16invalid_argumentC1EPKc
libKF5SyntaxHighlighting.so.5:_ZNSt16invalid_argumentC1ERKSs
libKF5SyntaxHighlighting.so.5:_ZNSt16invalid_argumentC2EPKc
libKF5SyntaxHighlighting.so.5:_ZNSt16invalid_argumentC2ERKSs
libKF5SyntaxHighlighting.so.5:_ZNSt16invalid_argumentD0Ev
libKF5SyntaxHighlighting.so.5:_ZNSt16invalid_argumentD1Ev
libKF5SyntaxHighlighting.so.5:_ZNSt16invalid_argumentD2Ev
libKF5SyntaxHighlighting.so.5:_ZNSt20bad_array_new_lengthD0Ev
libKF5SyntaxHighlighting.so.5:_ZNSt20bad_array_new_lengthD1Ev
libKF5SyntaxHighlighting.so.5:_ZNSt20bad_array_new_lengthD2Ev
libKF5SyntaxHighlighting.so.5:_ZNSt8bad_castD0Ev
libKF5SyntaxHighlighting.so.5:_ZNSt8bad_castD1Ev
libKF5SyntaxHighlighting.so.5:_ZNSt8bad_castD2Ev
libKF5SyntaxHighlighting.so.5:_ZNSt9bad_allocD0Ev
libKF5SyntaxHighlighting.so.5:_ZNSt9bad_allocD1Ev
libKF5SyntaxHighlighting.so.5:_ZNSt9bad_allocD2Ev
libKF5SyntaxHighlighting.so.5:_ZNSt9exceptionD0Ev
libKF5SyntaxHighlighting.so.5:_ZNSt9exceptionD1Ev
libKF5SyntaxHighlighting.so.5:_ZNSt9exceptionD2Ev
libKF5SyntaxHighlighting.so.5:_ZNSt9type_infoD0Ev
libKF5SyntaxHighlighting.so.5:_ZNSt9type_infoD1Ev
libKF5SyntaxHighlighting.so.5:_ZNSt9type_infoD2Ev
libKF5SyntaxHighlighting.so.5:_ZSt10unexpectedv
libKF5SyntaxHighlighting.so.5:_ZSt13get_terminatev
libKF5SyntaxHighlighting.so.5:_ZSt13set_terminatePFvvE
libKF5SyntaxHighlighting.so.5:_ZSt14get_unexpectedv
libKF5SyntaxHighlighting.so.5:_ZSt14set_unexpectedPFvvE
libKF5SyntaxHighlighting.so.5:_ZSt15get_new_handlerv
libKF5SyntaxHighlighting.so.5:_ZSt15set_new_handlerPFvvE
libKF5SyntaxHighlighting.so.5:_ZSt16__throw_bad_castv
libKF5SyntaxHighlighting.so.5:_ZSt17__throw_bad_allocv
libKF5SyntaxHighlighting.so.5:_ZSt18__throw_bad_typeidv
libKF5SyntaxHighlighting.so.5:_ZSt18uncaught_exceptionv
libKF5SyntaxHighlighting.so.5:_ZSt19__throw_logic_errorPKc
libKF5SyntaxHighlighting.so.5:_ZSt19__throw_range_errorPKc
libKF5SyntaxHighlighting.so.5:_ZSt19uncaught_exceptionsv
libKF5SyntaxHighlighting.so.5:_ZSt20__throw_domain_errorPKc
libKF5SyntaxHighlighting.so.5:_ZSt20__throw_length_errorPKc
libKF5SyntaxHighlighting.so.5:_ZSt20__throw_out_of_rangePKc
libKF5SyntaxHighlighting.so.5:_ZSt21__throw_bad_exceptionv
libKF5SyntaxHighlighting.so.5:_ZSt21__throw_runtime_errorPKc
libKF5SyntaxHighlighting.so.5:_ZSt22__throw_overflow_errorPKc
libKF5SyntaxHighlighting.so.5:_ZSt23__throw_underflow_errorPKc
libKF5SyntaxHighlighting.so.5:_ZSt24__throw_invalid_argumentPKc
libKF5SyntaxHighlighting.so.5:_ZSt24__throw_out_of_range_fmtPKcz
libKF5SyntaxHighlighting.so.5:_ZSt28__throw_bad_array_new_lengthv
libKF5SyntaxHighlighting.so.5:_ZSt9terminatev
libKF5SyntaxHighlighting.so.5:_ZThn16_N19KSyntaxHighlighting17SyntaxHighlighter11applyFormatEiiRKNS_6FormatE
libKF5SyntaxHighlighting.so.5:_ZThn16_N19KSyntaxHighlighting17SyntaxHighlighter12applyFoldingEiiNS_13FoldingRegionE
libKF5SyntaxHighlighting.so.5:_ZThn16_N19KSyntaxHighlighting17SyntaxHighlighter13setDefinitionERKNS_10DefinitionE
libKF5SyntaxHighlighting.so.5:_ZThn16_N19KSyntaxHighlighting17SyntaxHighlighterD0Ev
libKF5SyntaxHighlighting.so.5:_ZThn16_N19KSyntaxHighlighting17SyntaxHighlighterD1Ev
libKF5SyntaxHighlighting.so.5:_ZdlPv
libKF5SyntaxHighlighting.so.5:_ZdlPvm
libKF5SyntaxHighlighting.so.5:_Znwm
libKF5SyntaxHighlighting.so.5:_ZnwmRKSt9nothrow_t
libKF5SyntaxHighlighting.so.5:__cxa_allocate_dependent_exception
libKF5SyntaxHighlighting.so.5:__cxa_allocate_exception
libKF5SyntaxHighlighting.so.5:__cxa_begin_catch
libKF5SyntaxHighlighting.so.5:__cxa_call_terminate
libKF5SyntaxHighlighting.so.5:__cxa_call_unexpected
libKF5SyntaxHighlighting.so.5:__cxa_current_exception_type
libKF5SyntaxHighlighting.so.5:__cxa_demangle
libKF5SyntaxHighlighting.so.5:__cxa_end_catch
libKF5SyntaxHighlighting.so.5:__cxa_free_dependent_exception
libKF5SyntaxHighlighting.so.5:__cxa_free_exception
libKF5SyntaxHighlighting.so.5:__cxa_get_exception_ptr
libKF5SyntaxHighlighting.so.5:__cxa_get_globals
libKF5SyntaxHighlighting.so.5:__cxa_get_globals_fast
libKF5SyntaxHighlighting.so.5:__cxa_guard_abort
libKF5SyntaxHighlighting.so.5:__cxa_guard_acquire
libKF5SyntaxHighlighting.so.5:__cxa_guard_release
libKF5SyntaxHighlighting.so.5:__cxa_init_primary_exception
libKF5SyntaxHighlighting.so.5:__cxa_rethrow
libKF5SyntaxHighlighting.so.5:__cxa_throw
libKF5SyntaxHighlighting.so.5:__dynamic_cast
libKF5SyntaxHighlighting.so.5:__gcclibcxx_demangle_callback
libKF5SyntaxHighlighting.so.5:__gxx_personality_v0
